target datalayout = "e-m:e-p270:32:32-p271:32:32-p272:64:64-i64:64-i128:128-f80:128-n8:16:32:64-S128"
target triple = "x86_64-pc-linux-gnu"

%struct.opj_codec_private = type { %union.anon, ptr, %struct.opj_event_mgr, i32, ptr, ptr, ptr, ptr }
%union.anon = type { %struct.opj_decompression }
%struct.opj_decompression = type { ptr, ptr, ptr, ptr, ptr, ptr, ptr, ptr, ptr, ptr, ptr, ptr }
%struct.opj_event_mgr = type { ptr, ptr, ptr, ptr, ptr, ptr }

@.str.4 = private unnamed_addr constant [90 x i8] c"Codec provided to the opj_set_decoded_components function is not a decompressor handler.\0A\00", align 1
@.str.5 = private unnamed_addr constant [53 x i8] c"apply_color_transforms = OPJ_TRUE is not supported.\0A\00", align 1

; Function Attrs: nounwind uwtable
define hidden i32 @opj_set_decoded_components(ptr noundef %0, i32 noundef %1, ptr noundef %2, i32 noundef %3) #0 {
  %5 = alloca i32, align 4
  %6 = alloca ptr, align 8
  %7 = alloca i32, align 4
  %8 = alloca ptr, align 8
  %9 = alloca i32, align 4
  %10 = alloca ptr, align 8
  %11 = alloca i32, align 4
  store ptr %0, ptr %6, align 8, !tbaa !3
  store i32 %1, ptr %7, align 4, !tbaa !20
  store ptr %2, ptr %8, align 8, !tbaa !40
  store i32 %3, ptr %9, align 4, !tbaa !20
  %12 = load ptr, ptr %6, align 8, !tbaa !3
  %13 = icmp ne ptr %12, null
  br i1 %13, label %14, label %45

14:                                               ; preds = %4
  call void @llvm.lifetime.start.p0(i64 8, ptr %10) #5
  %15 = load ptr, ptr %6, align 8, !tbaa !3
  store ptr %15, ptr %10, align 8, !tbaa !9
  %16 = load ptr, ptr %10, align 8, !tbaa !9
  %17 = getelementptr inbounds nuw %struct.opj_codec_private, ptr %16, i32 0, i32 3
  %18 = load i32, ptr %17, align 8, !tbaa !21
  %19 = icmp ne i32 %18, 0
  br i1 %19, label %24, label %20

20:                                               ; preds = %14
  %21 = load ptr, ptr %10, align 8, !tbaa !9
  %22 = getelementptr inbounds nuw %struct.opj_codec_private, ptr %21, i32 0, i32 2
  %23 = call i32 (ptr, i32, ptr, ...) @opj_event_msg(ptr noundef %22, i32 noundef 1, ptr noundef @.str.4)
  store i32 0, ptr %5, align 4
  store i32 1, ptr %11, align 4
  br label %44

24:                                               ; preds = %14
  %25 = load i32, ptr %9, align 4, !tbaa !20
  %26 = icmp ne i32 %25, 0
  br i1 %26, label %27, label %31

27:                                               ; preds = %24
  %28 = load ptr, ptr %10, align 8, !tbaa !9
  %29 = getelementptr inbounds nuw %struct.opj_codec_private, ptr %28, i32 0, i32 2
  %30 = call i32 (ptr, i32, ptr, ...) @opj_event_msg(ptr noundef %29, i32 noundef 1, ptr noundef @.str.5)
  store i32 0, ptr %5, align 4
  store i32 1, ptr %11, align 4
  br label %44

31:                                               ; preds = %24
  %32 = load ptr, ptr %10, align 8, !tbaa !9
  %33 = getelementptr inbounds nuw %struct.opj_codec_private, ptr %32, i32 0, i32 0
  %34 = getelementptr inbounds nuw %struct.opj_decompression, ptr %33, i32 0, i32 11
  %35 = load ptr, ptr %34, align 8, !tbaa !25
  %36 = load ptr, ptr %10, align 8, !tbaa !9
  %37 = getelementptr inbounds nuw %struct.opj_codec_private, ptr %36, i32 0, i32 1
  %38 = load ptr, ptr %37, align 8, !tbaa !27
  %39 = load i32, ptr %7, align 4, !tbaa !20
  %40 = load ptr, ptr %8, align 8, !tbaa !40
  %41 = load ptr, ptr %10, align 8, !tbaa !9
  %42 = getelementptr inbounds nuw %struct.opj_codec_private, ptr %41, i32 0, i32 2
  %43 = call i32 %35(ptr noundef %38, i32 noundef %39, ptr noundef %40, ptr noundef %42)
  store i32 %43, ptr %5, align 4
  store i32 1, ptr %11, align 4
  br label %44

44:                                               ; preds = %31, %27, %20
  call void @llvm.lifetime.end.p0(i64 8, ptr %10) #5
  br label %46

45:                                               ; preds = %4
  store i32 0, ptr %5, align 4
  br label %46

46:                                               ; preds = %45, %44
  %47 = load i32, ptr %5, align 4
  ret i32 %47
}