; Function Attrs: nounwind uwtable
define hidden i32 @opj_set_decoded_components(ptr noundef %0, i32 noundef %1, ptr noundef %2, i32 noundef %3) local_unnamed_addr #2 {
  %.not = icmp eq ptr %0, null
  br i1 %.not, label %22, label %5

5:                                                ; preds = %4
  %6 = getelementptr inbounds nuw i8, ptr %0, i64 152
  %7 = load i32, ptr %6, align 8, !tbaa !15
  %.not12 = icmp eq i32 %7, 0
  br i1 %.not12, label %8, label %11

8:                                                ; preds = %5
  %9 = getelementptr inbounds nuw i8, ptr %0, i64 104
  %10 = tail call i32 (ptr, i32, ptr, ...) @opj_event_msg(ptr noundef nonnull %9, i32 noundef 1, ptr noundef nonnull @.str.4) #8
  br label %22

11:                                               ; preds = %5
  %.not13 = icmp eq i32 %3, 0
  br i1 %.not13, label %15, label %12

12:                                               ; preds = %11
  %13 = getelementptr inbounds nuw i8, ptr %0, i64 104
  %14 = tail call i32 (ptr, i32, ptr, ...) @opj_event_msg(ptr noundef nonnull %13, i32 noundef 1, ptr noundef nonnull @.str.5) #8
  br label %22

15:                                               ; preds = %11
  %16 = getelementptr inbounds nuw i8, ptr %0, i64 88
  %17 = load ptr, ptr %16, align 8, !tbaa !19
  %18 = getelementptr inbounds nuw i8, ptr %0, i64 96
  %19 = load ptr, ptr %18, align 8, !tbaa !21
  %20 = getelementptr inbounds nuw i8, ptr %0, i64 104
  %21 = tail call i32 %17(ptr noundef %19, i32 noundef %1, ptr noundef %2, ptr noundef nonnull %20) #8
  br label %22

22:                                               ; preds = %4, %8, %12, %15
  %.1 = phi i32 [ 0, %12 ], [ %21, %15 ], [ 0, %8 ], [ 0, %4 ]
  ret i32 %.1
}